target datalayout = "e-m:e-p270:32:32-p271:32:32-p272:64:64-i64:64-i128:128-f80:128-n8:16:32:64-S128"
target triple = "x86_64-pc-linux-gnu"

@.str = private unnamed_addr constant [3 x i8] c"0x\00", align 1

; Function Attrs: nounwind uwtable
define dso_local i32 @str_to_cnt(ptr noundef %0) #0 {
  %2 = alloca i32, align 4
  %3 = alloca ptr, align 8
  %4 = alloca i32, align 4
  %5 = alloca ptr, align 8
  %6 = alloca i32, align 4
  %7 = alloca i8, align 1
  %8 = alloca i32, align 4
  store ptr %0, ptr %3, align 8
  call void @llvm.lifetime.start.p0(i64 4, ptr %4) #4
  %9 = load ptr, ptr %3, align 8
  %10 = call i64 @strlen(ptr noundef %9) #5
  %11 = trunc i64 %10 to i32
  store i32 %11, ptr %4, align 4
  call void @llvm.lifetime.start.p0(i64 8, ptr %5) #4
  %12 = load ptr, ptr %3, align 8
  %13 = load i32, ptr %4, align 4
  %14 = sext i32 %13 to i64
  %15 = getelementptr inbounds i8, ptr %12, i64 %14
  %16 = getelementptr inbounds i8, ptr %15, i64 -1
  store ptr %16, ptr %5, align 8
  call void @llvm.lifetime.start.p0(i64 4, ptr %6) #4
  store i32 0, ptr %6, align 4
  %17 = load i32, ptr %4, align 4
  %18 = icmp sgt i32 %17, 1
  br i1 %18, label %19, label %26

19:                                               ; preds = %1
  %20 = load ptr, ptr %3, align 8
  %21 = call i32 @memcmp(ptr noundef %20, ptr noundef @.str, i64 noundef 2) #5
  %22 = icmp ne i32 %21, 0
  br i1 %22, label %26, label %23

23:                                               ; preds = %19
  %24 = load ptr, ptr %3, align 8
  %25 = getelementptr inbounds i8, ptr %24, i64 2
  store ptr %25, ptr %3, align 8
  br label %26

26:                                               ; preds = %23, %19, %1
  br label %27

27:                                               ; preds = %78, %26
  %28 = load ptr, ptr %5, align 8
  %29 = load ptr, ptr %3, align 8
  %30 = icmp uge ptr %28, %29
  br i1 %30, label %31, label %79

31:                                               ; preds = %27
  call void @llvm.lifetime.start.p0(i64 1, ptr %7) #4
  %32 = load ptr, ptr %5, align 8
  %33 = load i8, ptr %32, align 1
  %34 = sext i8 %33 to i32
  %35 = call i32 @slurm_char_to_hex(i32 noundef %34)
  %36 = trunc i32 %35 to i8
  store i8 %36, ptr %7, align 1
  %37 = load i8, ptr %7, align 1
  %38 = sext i8 %37 to i32
  %39 = icmp eq i32 %38, -1
  br i1 %39, label %40, label %41

40:                                               ; preds = %31
  store i32 -1, ptr %2, align 4
  store i32 1, ptr %8, align 4
  br label %76

41:                                               ; preds = %31
  %42 = load i8, ptr %7, align 1
  %43 = sext i8 %42 to i32
  %44 = and i32 %43, 1
  %45 = icmp ne i32 %44, 0
  br i1 %45, label %46, label %49

46:                                               ; preds = %41
  %47 = load i32, ptr %6, align 4
  %48 = add nsw i32 %47, 1
  store i32 %48, ptr %6, align 4
  br label %49

49:                                               ; preds = %46, %41
  %50 = load i8, ptr %7, align 1
  %51 = sext i8 %50 to i32
  %52 = and i32 %51, 2
  %53 = icmp ne i32 %52, 0
  br i1 %53, label %54, label %57

54:                                               ; preds = %49
  %55 = load i32, ptr %6, align 4
  %56 = add nsw i32 %55, 1
  store i32 %56, ptr %6, align 4
  br label %57

57:                                               ; preds = %54, %49
  %58 = load i8, ptr %7, align 1
  %59 = sext i8 %58 to i32
  %60 = and i32 %59, 4
  %61 = icmp ne i32 %60, 0
  br i1 %61, label %62, label %65

62:                                               ; preds = %57
  %63 = load i32, ptr %6, align 4
  %64 = add nsw i32 %63, 1
  store i32 %64, ptr %6, align 4
  br label %65

65:                                               ; preds = %62, %57
  %66 = load i8, ptr %7, align 1
  %67 = sext i8 %66 to i32
  %68 = and i32 %67, 8
  %69 = icmp ne i32 %68, 0
  br i1 %69, label %70, label %73

70:                                               ; preds = %65
  %71 = load i32, ptr %6, align 4
  %72 = add nsw i32 %71, 1
  store i32 %72, ptr %6, align 4
  br label %73

73:                                               ; preds = %70, %65
  %74 = load ptr, ptr %5, align 8
  %75 = getelementptr inbounds i8, ptr %74, i32 -1
  store ptr %75, ptr %5, align 8
  store i32 0, ptr %8, align 4
  br label %76

76:                                               ; preds = %73, %40
  call void @llvm.lifetime.end.p0(i64 1, ptr %7) #4
  %77 = load i32, ptr %8, align 4
  switch i32 %77, label %81 [
    i32 0, label %78
  ]

78:                                               ; preds = %76
  br label %27, !llvm.loop !8

79:                                               ; preds = %27
  %80 = load i32, ptr %6, align 4
  store i32 %80, ptr %2, align 4
  store i32 1, ptr %8, align 4
  br label %81

81:                                               ; preds = %79, %76
  call void @llvm.lifetime.end.p0(i64 4, ptr %6) #4
  call void @llvm.lifetime.end.p0(i64 8, ptr %5) #4
  call void @llvm.lifetime.end.p0(i64 4, ptr %4) #4
  %82 = load i32, ptr %2, align 4
  ret i32 %82
}

; Function Attrs: nocallback nofree nosync nounwind willreturn memory(argmem: readwrite)
declare void @llvm.lifetime.start.p0(i64 immarg, ptr captures(none)) #1

; Function Attrs: nounwind willreturn memory(read)
declare i64 @strlen(ptr noundef) #2

; Function Attrs: nounwind willreturn memory(read)
declare i32 @memcmp(ptr noundef, ptr noundef, i64 noundef) #2

declare i32 @slurm_char_to_hex(i32 noundef) #3

; Function Attrs: nocallback nofree nosync nounwind willreturn memory(argmem: readwrite)
declare void @llvm.lifetime.end.p0(i64 immarg, ptr captures(none)) #1


!llvm.module.flags = !{!0, !1, !2, !3, !4, !5, !6, !7}

!0 = !{i32 7, !"Dwarf Version", i32 5}
!1 = !{i32 2, !"Debug Info Version", i32 3}
!2 = !{i32 1, !"wchar_size", i32 4}
!3 = !{i32 8, !"PIC Level", i32 2}
!4 = !{i32 7, !"PIE Level", i32 2}
!5 = !{i32 7, !"uwtable", i32 2}
!6 = !{i32 7, !"frame-pointer", i32 2}
!7 = !{i32 7, !"debug-info-assignment-tracking", i1 true}
!8 = distinct !{!8, !9, !10}
!9 = !{!"llvm.loop.mustprogress"}
!10 = !{!"llvm.loop.unroll.disable"}
